; Function Attrs: mustprogress nofree norecurse nosync nounwind memory(argmem: readwrite) uwtable
define internal void @_ZN2cv12cpu_baselineL13cvtScale8u16fEPKhmS2_mPhmNS_5Size_IiEEPv(ptr noundef readonly captures(none) %0, i64 noundef %1, ptr readnone captures(none) %2, i64 %3, ptr noundef writeonly captures(none) %4, i64 noundef %5, i64 %6, ptr noundef readonly captures(none) %7) #2 {
  %9 = load double, ptr %7, align 8, !tbaa !7
  %10 = fptrunc double %9 to float
  %11 = getelementptr inbounds nuw i8, ptr %7, i64 8
  %12 = load double, ptr %11, align 8, !tbaa !7
  %13 = fptrunc double %12 to float
  %.sroa.2.0.extract.shift.i = lshr i64 %6, 32
  %.sroa.2.0.extract.trunc.i = trunc nuw i64 %.sroa.2.0.extract.shift.i to i32
  %14 = lshr i64 %5, 1
  %15 = icmp sgt i32 %.sroa.2.0.extract.trunc.i, 0
  %.sroa.015.0.extract.trunc.i = trunc i64 %6 to i32
  %16 = icmp sgt i32 %.sroa.015.0.extract.trunc.i, 0
  %or.cond.i = and i1 %16, %15
  br i1 %or.cond.i, label %.preheader.us.preheader.i, label %_ZN2cv12cpu_baseline8cvt1_32fIhNS_6hfloatEEEvPKT_mPT0_mNS_5Size_IiEEff.exit

.preheader.us.preheader.i:                        ; preds = %8
  %wide.trip.count.i = and i64 %6, 2147483647
  br label %.preheader.us.i

.preheader.us.i:                                  ; preds = %._crit_edge.us.i, %.preheader.us.preheader.i
  %.022.us.i = phi ptr [ %49, %._crit_edge.us.i ], [ %0, %.preheader.us.preheader.i ]
  %.01721.us.i = phi i32 [ %48, %._crit_edge.us.i ], [ 0, %.preheader.us.preheader.i ]
  %.01820.us.i = phi ptr [ %50, %._crit_edge.us.i ], [ %4, %.preheader.us.preheader.i ]
  br label %17

17:                                               ; preds = %_ZN2cvL13saturate_castINS_6hfloatEEET_f.exit.us.i, %.preheader.us.i
  %indvars.iv.i = phi i64 [ 0, %.preheader.us.i ], [ %indvars.iv.next.i, %_ZN2cvL13saturate_castINS_6hfloatEEET_f.exit.us.i ]
  %18 = getelementptr inbounds nuw i8, ptr %.022.us.i, i64 %indvars.iv.i
  %19 = load i8, ptr %18, align 1, !tbaa !9
  %20 = uitofp i8 %19 to float
  %21 = tail call float @llvm.fmuladd.f32(float %20, float %10, float %13)
  %22 = tail call float @llvm.fabs.f32(float %21)
  %23 = bitcast float %22 to i32
  %24 = icmp samesign ugt i32 %23, 1199570943
  br i1 %24, label %38, label %25

25:                                               ; preds = %17
  %26 = icmp samesign ult i32 %23, 947912704
  br i1 %26, label %34, label %27

27:                                               ; preds = %25
  %28 = add nuw nsw i32 %23, 134221823
  %29 = lshr i32 %23, 13
  %30 = and i32 %29, 1
  %31 = add nuw nsw i32 %28, %30
  %32 = lshr i32 %31, 13
  %33 = trunc i32 %32 to i16
  br label %_ZN2cvL13saturate_castINS_6hfloatEEET_f.exit.us.i

34:                                               ; preds = %25
  %35 = fadd float %22, 5.000000e-01
  %36 = bitcast float %35 to i32
  %37 = trunc i32 %36 to i16
  br label %_ZN2cvL13saturate_castINS_6hfloatEEET_f.exit.us.i

38:                                               ; preds = %17
  %39 = icmp samesign ugt i32 %23, 2139095040
  %40 = select i1 %39, i16 32256, i16 31744
  br label %_ZN2cvL13saturate_castINS_6hfloatEEET_f.exit.us.i

_ZN2cvL13saturate_castINS_6hfloatEEET_f.exit.us.i: ; preds = %38, %34, %27
  %41 = phi i16 [ %37, %34 ], [ %33, %27 ], [ %40, %38 ]
  %42 = bitcast float %21 to i32
  %43 = lshr i32 %42, 16
  %44 = trunc nuw i32 %43 to i16
  %45 = and i16 %44, -32768
  %46 = or i16 %41, %45
  %47 = getelementptr inbounds nuw %"class.cv::hfloat", ptr %.01820.us.i, i64 %indvars.iv.i
  store i16 %46, ptr %47, align 2, !tbaa !15
  %indvars.iv.next.i = add nuw nsw i64 %indvars.iv.i, 1
  %exitcond.not.i = icmp eq i64 %indvars.iv.next.i, %wide.trip.count.i
  br i1 %exitcond.not.i, label %._crit_edge.us.i, label %17, !llvm.loop !145

._crit_edge.us.i:                                 ; preds = %_ZN2cvL13saturate_castINS_6hfloatEEET_f.exit.us.i
  %48 = add nuw nsw i32 %.01721.us.i, 1
  %49 = getelementptr inbounds nuw i8, ptr %.022.us.i, i64 %1
  %50 = getelementptr inbounds nuw %"class.cv::hfloat", ptr %.01820.us.i, i64 %14
  %exitcond26.not.i = icmp eq i32 %48, %.sroa.2.0.extract.trunc.i
  br i1 %exitcond26.not.i, label %_ZN2cv12cpu_baseline8cvt1_32fIhNS_6hfloatEEEvPKT_mPT0_mNS_5Size_IiEEff.exit, label %.preheader.us.i, !llvm.loop !146

_ZN2cv12cpu_baseline8cvt1_32fIhNS_6hfloatEEEvPKT_mPT0_mNS_5Size_IiEEff.exit: ; preds = %._crit_edge.us.i, %8
  ret void
}